
Memory Configuration

Name             Origin             Length             Attributes
FLASH            0x0000000008000000 0x0000000000080000 xr
SRAM             0x0000000020000000 0x0000000000018000 xrw
*default*        0x0000000000000000 0xffffffffffffffff

Linker script and memory map

LOAD Build/main.o
LOAD Build/stm32_startup.o
LOAD Build/gpio.o
LOAD Build/systick.o

.text           0x0000000008000000      0x938
 *(.isr_vector)
 .isr_vector    0x0000000008000000      0x194 Build/stm32_startup.o
                0x0000000008000000                vectors
 *(.text)
 .text          0x0000000008000194       0x90 Build/main.o
                0x0000000008000194                delay_cycles
                0x00000000080001b6                gpio_setup
                0x00000000080001f4                main
                0x0000000008000218                SysTick_Handler
 .text          0x0000000008000224       0x90 Build/stm32_startup.o
                0x0000000008000224                EXTI2_IRQHandler
                0x0000000008000224                DebugMon_Handler
                0x0000000008000224                SPI4_IRQHandler
                0x0000000008000224                TIM1_CC_IRQHandler
                0x0000000008000224                DMA2_Stream5_IRQHandler
                0x0000000008000224                HardFault_Handler
                0x0000000008000224                DMA1_Stream5_IRQHandler
                0x0000000008000224                SDIO_IRQHandler
                0x0000000008000224                TAMP_STAMP_IRQHandler
                0x0000000008000224                PendSV_Handler
                0x0000000008000224                NMI_Handler
                0x0000000008000224                EXTI3_IRQHandler
                0x0000000008000224                TIM1_UP_TIM10_IRQHandler
                0x0000000008000224                I2C3_ER_IRQHandler
                0x0000000008000224                EXTI18_OTG_FS_WKUP_IRQHandler
                0x0000000008000224                EXTI0_IRQHandler
                0x0000000008000224                I2C2_EV_IRQHandler
                0x0000000008000224                DMA1_Stream2_IRQHandler
                0x0000000008000224                UsageFault_Handler
                0x0000000008000224                DMA2_Stream2_IRQHandler
                0x0000000008000224                SPI1_IRQHandler
                0x0000000008000224                TIM1_BRK_TIM9_IRQHandler
                0x0000000008000224                DMA2_Stream3_IRQHandler
                0x0000000008000224                USART6_IRQHandler
                0x0000000008000224                DMA2_Stream0_IRQHandler
                0x0000000008000224                TIM4_IRQHandler
                0x0000000008000224                I2C1_EV_IRQHandler
                0x0000000008000224                DMA1_Stream6_IRQHandler
                0x0000000008000224                DMA1_Stream1_IRQHandler
                0x0000000008000224                TIM3_IRQHandler
                0x0000000008000224                RCC_IRQHandler
                0x0000000008000224                Default_Handler
                0x0000000008000224                EXTI15_10_IRQHandler
                0x0000000008000224                ADC_IRQHandler
                0x0000000008000224                DMA1_Stream7_IRQHandler
                0x0000000008000224                TIM5_IRQHandler
                0x0000000008000224                DMA2_Stream7_IRQHandler
                0x0000000008000224                I2C3_EV_IRQHandler
                0x0000000008000224                EXTI9_5_IRQHandler
                0x0000000008000224                SPI2_IRQHandler
                0x0000000008000224                MemManage_Handler
                0x0000000008000224                DMA1_Stream0_IRQHandler
                0x0000000008000224                SVC_Handler
                0x0000000008000224                EXTI4_IRQHandler
                0x0000000008000224                EXTI22_RTC_WKUP_IRQHandler
                0x0000000008000224                TIM2_IRQHandler
                0x0000000008000224                EXTI16_PVD_IRQHandler
                0x0000000008000224                TIM1_TRG_COM_TIM11_IRQHandler
                0x0000000008000224                EXTI1_IRQHandler
                0x0000000008000224                EXTI17_RTC_Alarm_IRQHandler
                0x0000000008000224                USART2_IRQHandler
                0x0000000008000224                I2C2_ER_IRQHandler
                0x0000000008000224                DMA2_Stream1_IRQHandler
                0x0000000008000224                FLASH_IRQHandler
                0x0000000008000224                DMA2_Stream4_IRQHandler
                0x0000000008000224                BusFault_Handler
                0x0000000008000224                USART1_IRQHandler
                0x0000000008000224                OTG_FS_IRQHandler
                0x0000000008000224                SPI3_IRQHandler
                0x0000000008000224                DMA1_Stream4_IRQHandler
                0x0000000008000224                I2C1_ER_IRQHandler
                0x0000000008000224                DMA2_Stream6_IRQHandler
                0x0000000008000224                DMA1_Stream3_IRQHandler
                0x000000000800022a                Reset_Handler
 .text          0x00000000080002b4      0x5fc Build/gpio.o
                0x00000000080002b4                GPIO_PeriClockControl
                0x00000000080003f4                GPIO_Init
                0x0000000008000704                GPIO_DeInit
                0x00000000080007fc                GPIO_ReadFromInputPin
                0x0000000008000826                GPIO_ReadFromInputPort
                0x0000000008000840                GPIO_WriteToOutputPin
                0x0000000008000888                GPIO_ToggleOutputPin
 .text          0x00000000080008b0       0x88 Build/systick.o
                0x00000000080008b0                systickDelayMs
                0x0000000008000904                systick_1hz_interrupt
 *(.rodata)
                0x0000000008000938                . = ALIGN (0x4)
                0x0000000008000938                _etext = .

.glue_7         0x0000000008000938        0x0
 .glue_7        0x0000000008000938        0x0 linker stubs

.glue_7t        0x0000000008000938        0x0
 .glue_7t       0x0000000008000938        0x0 linker stubs

.vfp11_veneer   0x0000000008000938        0x0
 .vfp11_veneer  0x0000000008000938        0x0 linker stubs

.v4_bx          0x0000000008000938        0x0
 .v4_bx         0x0000000008000938        0x0 linker stubs

.iplt           0x0000000008000938        0x0
 .iplt          0x0000000008000938        0x0 Build/main.o

.rel.dyn        0x0000000008000938        0x0
 .rel.iplt      0x0000000008000938        0x0 Build/main.o

.data           0x0000000020000000        0x0 load address 0x0000000008000938
                0x0000000020000000                _sdata = .
 *(.data)
 .data          0x0000000020000000        0x0 Build/main.o
 .data          0x0000000020000000        0x0 Build/stm32_startup.o
 .data          0x0000000020000000        0x0 Build/gpio.o
 .data          0x0000000020000000        0x0 Build/systick.o
                0x0000000020000000                _edata = .

.igot.plt       0x0000000020000000        0x0 load address 0x0000000008000938
 .igot.plt      0x0000000020000000        0x0 Build/main.o

.bss            0x0000000020000000        0x0 load address 0x0000000008000938
                0x0000000020000000                _sbss = .
 *(.bss)
 .bss           0x0000000020000000        0x0 Build/main.o
 .bss           0x0000000020000000        0x0 Build/stm32_startup.o
 .bss           0x0000000020000000        0x0 Build/gpio.o
 .bss           0x0000000020000000        0x0 Build/systick.o
 *(COMMON)
                0x0000000020000000                . = ALIGN (0x4)
                0x0000000020000000                _ebss = .
OUTPUT(final.elf elf32-littlearm)
LOAD linker stubs

.comment        0x0000000000000000       0x33
 .comment       0x0000000000000000       0x33 Build/main.o
                                         0x34 (size before relaxing)
 .comment       0x0000000000000033       0x34 Build/stm32_startup.o
 .comment       0x0000000000000033       0x34 Build/gpio.o
 .comment       0x0000000000000033       0x34 Build/systick.o

.ARM.attributes
                0x0000000000000000       0x2e
 .ARM.attributes
                0x0000000000000000       0x2e Build/main.o
 .ARM.attributes
                0x000000000000002e       0x2e Build/stm32_startup.o
 .ARM.attributes
                0x000000000000005c       0x2e Build/gpio.o
 .ARM.attributes
                0x000000000000008a       0x2e Build/systick.o
